target datalayout = "e-m:e-p270:32:32-p271:32:32-p272:64:64-i64:64-i128:128-f80:128-n8:16:32:64-S128"
target triple = "x86_64-pc-linux-gnu"

@.str = private unnamed_addr constant [52 x i8] c"../openssl/providers/implementations/kdfs/x942kdf.c\00", align 1
@__func__.x942kdf_hash_kdm = private unnamed_addr constant [17 x i8] c"x942kdf_hash_kdm\00", align 1

; Function Attrs: nounwind uwtable
define internal i32 @x942kdf_hash_kdm(ptr noundef %0, ptr noundef %1, i64 noundef %2, ptr noundef %3, i64 noundef %4, ptr noundef %5, ptr noundef %6, i64 noundef %7) #0 {
  %9 = alloca i32, align 4
  %10 = alloca ptr, align 8
  %11 = alloca ptr, align 8
  %12 = alloca i64, align 8
  %13 = alloca ptr, align 8
  %14 = alloca i64, align 8
  %15 = alloca ptr, align 8
  %16 = alloca ptr, align 8
  %17 = alloca i64, align 8
  %18 = alloca i32, align 4
  %19 = alloca i32, align 4
  %20 = alloca i64, align 8
  %21 = alloca i64, align 8
  %22 = alloca i64, align 8
  %23 = alloca [64 x i8], align 16
  %24 = alloca ptr, align 8
  %25 = alloca ptr, align 8
  %26 = alloca ptr, align 8
  %27 = alloca i32, align 4
  store ptr %0, ptr %10, align 8, !tbaa !36
  store ptr %1, ptr %11, align 8, !tbaa !31
  store i64 %2, ptr %12, align 8, !tbaa !32
  store ptr %3, ptr %13, align 8, !tbaa !31
  store i64 %4, ptr %14, align 8, !tbaa !32
  store ptr %5, ptr %15, align 8, !tbaa !31
  store ptr %6, ptr %16, align 8, !tbaa !31
  store i64 %7, ptr %17, align 8, !tbaa !32
  call void @llvm.lifetime.start.p0(i64 4, ptr %18) #6
  store i32 0, ptr %18, align 4, !tbaa !35
  call void @llvm.lifetime.start.p0(i64 4, ptr %19) #6
  call void @llvm.lifetime.start.p0(i64 8, ptr %20) #6
  call void @llvm.lifetime.start.p0(i64 8, ptr %21) #6
  call void @llvm.lifetime.start.p0(i64 8, ptr %22) #6
  %28 = load i64, ptr %17, align 8, !tbaa !32
  store i64 %28, ptr %22, align 8, !tbaa !32
  call void @llvm.lifetime.start.p0(i64 64, ptr %23) #6
  call void @llvm.lifetime.start.p0(i64 8, ptr %24) #6
  %29 = load ptr, ptr %16, align 8, !tbaa !31
  store ptr %29, ptr %24, align 8, !tbaa !31
  call void @llvm.lifetime.start.p0(i64 8, ptr %25) #6
  store ptr null, ptr %25, align 8, !tbaa !51
  call void @llvm.lifetime.start.p0(i64 8, ptr %26) #6
  store ptr null, ptr %26, align 8, !tbaa !51
  %30 = load i64, ptr %12, align 8, !tbaa !32
  %31 = icmp ugt i64 %30, 1073741824
  br i1 %31, label %41, label %32

32:                                               ; preds = %8
  %33 = load i64, ptr %14, align 8, !tbaa !32
  %34 = icmp ugt i64 %33, 1073741824
  br i1 %34, label %41, label %35

35:                                               ; preds = %32
  %36 = load i64, ptr %17, align 8, !tbaa !32
  %37 = icmp ugt i64 %36, 1073741824
  br i1 %37, label %41, label %38

38:                                               ; preds = %35
  %39 = load i64, ptr %17, align 8, !tbaa !32
  %40 = icmp eq i64 %39, 0
  br i1 %40, label %41, label %42

41:                                               ; preds = %38, %35, %32, %8
  call void @ERR_new()
  call void @ERR_set_debug(ptr noundef @.str, i32 noundef 284, ptr noundef @__func__.x942kdf_hash_kdm)
  call void (i32, i32, ptr, ...) @ERR_set_error(i32 noundef 57, i32 noundef 142, ptr noundef null)
  store i32 0, ptr %9, align 4
  store i32 1, ptr %27, align 4
  br label %148

42:                                               ; preds = %38
  %43 = load ptr, ptr %10, align 8, !tbaa !36
  %44 = call i32 @EVP_MD_get_size(ptr noundef %43)
  store i32 %44, ptr %19, align 4, !tbaa !35
  %45 = load i32, ptr %19, align 4, !tbaa !35
  %46 = icmp sle i32 %45, 0
  br i1 %46, label %47, label %48

47:                                               ; preds = %42
  store i32 0, ptr %9, align 4
  store i32 1, ptr %27, align 4
  br label %148

48:                                               ; preds = %42
  %49 = load i32, ptr %19, align 4, !tbaa !35
  %50 = sext i32 %49 to i64
  store i64 %50, ptr %21, align 8, !tbaa !32
  %51 = call ptr @EVP_MD_CTX_new()
  store ptr %51, ptr %25, align 8, !tbaa !51
  %52 = call ptr @EVP_MD_CTX_new()
  store ptr %52, ptr %26, align 8, !tbaa !51
  %53 = load ptr, ptr %25, align 8, !tbaa !51
  %54 = icmp eq ptr %53, null
  br i1 %54, label %58, label %55

55:                                               ; preds = %48
  %56 = load ptr, ptr %26, align 8, !tbaa !51
  %57 = icmp eq ptr %56, null
  br i1 %57, label %58, label %59

58:                                               ; preds = %55, %48
  br label %143

59:                                               ; preds = %55
  %60 = load ptr, ptr %26, align 8, !tbaa !51
  %61 = load ptr, ptr %10, align 8, !tbaa !36
  %62 = call i32 @EVP_DigestInit(ptr noundef %60, ptr noundef %61)
  %63 = icmp ne i32 %62, 0
  br i1 %63, label %65, label %64

64:                                               ; preds = %59
  br label %143

65:                                               ; preds = %59
  store i64 1, ptr %20, align 8, !tbaa !32
  br label %66

66:                                               ; preds = %139, %65
  %67 = load i64, ptr %20, align 8, !tbaa !32
  %68 = lshr i64 %67, 24
  %69 = and i64 %68, 255
  %70 = trunc i64 %69 to i8
  %71 = load ptr, ptr %15, align 8, !tbaa !31
  %72 = getelementptr inbounds i8, ptr %71, i64 0
  store i8 %70, ptr %72, align 1, !tbaa !50
  %73 = load i64, ptr %20, align 8, !tbaa !32
  %74 = lshr i64 %73, 16
  %75 = and i64 %74, 255
  %76 = trunc i64 %75 to i8
  %77 = load ptr, ptr %15, align 8, !tbaa !31
  %78 = getelementptr inbounds i8, ptr %77, i64 1
  store i8 %76, ptr %78, align 1, !tbaa !50
  %79 = load i64, ptr %20, align 8, !tbaa !32
  %80 = lshr i64 %79, 8
  %81 = and i64 %80, 255
  %82 = trunc i64 %81 to i8
  %83 = load ptr, ptr %15, align 8, !tbaa !31
  %84 = getelementptr inbounds i8, ptr %83, i64 2
  store i8 %82, ptr %84, align 1, !tbaa !50
  %85 = load i64, ptr %20, align 8, !tbaa !32
  %86 = and i64 %85, 255
  %87 = trunc i64 %86 to i8
  %88 = load ptr, ptr %15, align 8, !tbaa !31
  %89 = getelementptr inbounds i8, ptr %88, i64 3
  store i8 %87, ptr %89, align 1, !tbaa !50
  %90 = load ptr, ptr %25, align 8, !tbaa !51
  %91 = load ptr, ptr %26, align 8, !tbaa !51
  %92 = call i32 @EVP_MD_CTX_copy_ex(ptr noundef %90, ptr noundef %91)
  %93 = icmp ne i32 %92, 0
  br i1 %93, label %94, label %106

94:                                               ; preds = %66
  %95 = load ptr, ptr %25, align 8, !tbaa !51
  %96 = load ptr, ptr %11, align 8, !tbaa !31
  %97 = load i64, ptr %12, align 8, !tbaa !32
  %98 = call i32 @EVP_DigestUpdate(ptr noundef %95, ptr noundef %96, i64 noundef %97)
  %99 = icmp ne i32 %98, 0
  br i1 %99, label %100, label %106

100:                                              ; preds = %94
  %101 = load ptr, ptr %25, align 8, !tbaa !51
  %102 = load ptr, ptr %13, align 8, !tbaa !31
  %103 = load i64, ptr %14, align 8, !tbaa !32
  %104 = call i32 @EVP_DigestUpdate(ptr noundef %101, ptr noundef %102, i64 noundef %103)
  %105 = icmp ne i32 %104, 0
  br i1 %105, label %107, label %106

106:                                              ; preds = %100, %94, %66
  br label %143

107:                                              ; preds = %100
  %108 = load i64, ptr %22, align 8, !tbaa !32
  %109 = load i64, ptr %21, align 8, !tbaa !32
  %110 = icmp uge i64 %108, %109
  br i1 %110, label %111, label %128

111:                                              ; preds = %107
  %112 = load ptr, ptr %25, align 8, !tbaa !51
  %113 = load ptr, ptr %24, align 8, !tbaa !31
  %114 = call i32 @EVP_DigestFinal_ex(ptr noundef %112, ptr noundef %113, ptr noundef null)
  %115 = icmp ne i32 %114, 0
  br i1 %115, label %117, label %116

116:                                              ; preds = %111
  br label %143

117:                                              ; preds = %111
  %118 = load i64, ptr %21, align 8, !tbaa !32
  %119 = load ptr, ptr %24, align 8, !tbaa !31
  %120 = getelementptr inbounds nuw i8, ptr %119, i64 %118
  store ptr %120, ptr %24, align 8, !tbaa !31
  %121 = load i64, ptr %21, align 8, !tbaa !32
  %122 = load i64, ptr %22, align 8, !tbaa !32
  %123 = sub i64 %122, %121
  store i64 %123, ptr %22, align 8, !tbaa !32
  %124 = load i64, ptr %22, align 8, !tbaa !32
  %125 = icmp eq i64 %124, 0
  br i1 %125, label %126, label %127

126:                                              ; preds = %117
  br label %142

127:                                              ; preds = %117
  br label %138

128:                                              ; preds = %107
  %129 = load ptr, ptr %25, align 8, !tbaa !51
  %130 = getelementptr inbounds [64 x i8], ptr %23, i64 0, i64 0
  %131 = call i32 @EVP_DigestFinal_ex(ptr noundef %129, ptr noundef %130, ptr noundef null)
  %132 = icmp ne i32 %131, 0
  br i1 %132, label %134, label %133

133:                                              ; preds = %128
  br label %143

134:                                              ; preds = %128
  %135 = load ptr, ptr %24, align 8, !tbaa !31
  %136 = getelementptr inbounds [64 x i8], ptr %23, i64 0, i64 0
  %137 = load i64, ptr %22, align 8, !tbaa !32
  call void @llvm.memcpy.p0.p0.i64(ptr align 1 %135, ptr align 16 %136, i64 %137, i1 false)
  br label %142

138:                                              ; preds = %127
  br label %139

139:                                              ; preds = %138
  %140 = load i64, ptr %20, align 8, !tbaa !32
  %141 = add i64 %140, 1
  store i64 %141, ptr %20, align 8, !tbaa !32
  br label %66

142:                                              ; preds = %134, %126
  store i32 1, ptr %18, align 4, !tbaa !35
  br label %143

143:                                              ; preds = %142, %133, %116, %106, %64, %58
  %144 = load ptr, ptr %25, align 8, !tbaa !51
  call void @EVP_MD_CTX_free(ptr noundef %144)
  %145 = load ptr, ptr %26, align 8, !tbaa !51
  call void @EVP_MD_CTX_free(ptr noundef %145)
  %146 = getelementptr inbounds [64 x i8], ptr %23, i64 0, i64 0
  call void @OPENSSL_cleanse(ptr noundef %146, i64 noundef 64)
  %147 = load i32, ptr %18, align 4, !tbaa !35
  store i32 %147, ptr %9, align 4
  store i32 1, ptr %27, align 4
  br label %148

148:                                              ; preds = %143, %47, %41
  call void @llvm.lifetime.end.p0(i64 8, ptr %26) #6
  call void @llvm.lifetime.end.p0(i64 8, ptr %25) #6
  call void @llvm.lifetime.end.p0(i64 8, ptr %24) #6
  call void @llvm.lifetime.end.p0(i64 64, ptr %23) #6
  call void @llvm.lifetime.end.p0(i64 8, ptr %22) #6
  call void @llvm.lifetime.end.p0(i64 8, ptr %21) #6
  call void @llvm.lifetime.end.p0(i64 8, ptr %20) #6
  call void @llvm.lifetime.end.p0(i64 4, ptr %19) #6
  call void @llvm.lifetime.end.p0(i64 4, ptr %18) #6
  %149 = load i32, ptr %9, align 4
  ret i32 %149
}