; Function Attrs: nounwind uwtable
define internal fastcc range(i32 0, 2) i32 @x942kdf_hash_kdm(ptr noundef nonnull %0, ptr noundef %1, i64 noundef %2, ptr noundef %3, i64 noundef %4, ptr noundef writeonly captures(none) %5, ptr noundef %6, i64 noundef %7) unnamed_addr #0 {
  %9 = alloca [64 x i8], align 16
  call void @llvm.lifetime.start.p0(i64 64, ptr nonnull %9) #7
  %10 = icmp ugt i64 %2, 1073741824
  %11 = icmp ugt i64 %4, 1073741824
  %or.cond = or i1 %10, %11
  %12 = add i64 %7, -1073741825
  %13 = icmp ult i64 %12, -1073741824
  %or.cond5 = or i1 %or.cond, %13
  br i1 %or.cond5, label %14, label %15

14:                                               ; preds = %8
  tail call void @ERR_new() #7
  tail call void @ERR_set_debug(ptr noundef nonnull @.str, i32 noundef 284, ptr noundef nonnull @__func__.x942kdf_hash_kdm) #7
  tail call void (i32, i32, ptr, ...) @ERR_set_error(i32 noundef 57, i32 noundef 142, ptr noundef null) #7
  br label %53

15:                                               ; preds = %8
  %16 = tail call i32 @EVP_MD_get_size(ptr noundef nonnull %0) #7
  %17 = icmp slt i32 %16, 1
  br i1 %17, label %53, label %18

18:                                               ; preds = %15
  %19 = zext nneg i32 %16 to i64
  %20 = tail call ptr @EVP_MD_CTX_new() #7
  %21 = tail call ptr @EVP_MD_CTX_new() #7
  %22 = icmp eq ptr %20, null
  %23 = icmp eq ptr %21, null
  %or.cond7 = select i1 %22, i1 true, i1 %23
  br i1 %or.cond7, label %.loopexit, label %24

24:                                               ; preds = %18
  %25 = tail call i32 @EVP_DigestInit(ptr noundef nonnull %21, ptr noundef nonnull %0) #7
  %.not = icmp eq i32 %25, 0
  br i1 %.not, label %.loopexit, label %.preheader

.preheader:                                       ; preds = %24
  %26 = getelementptr inbounds nuw i8, ptr %5, i64 1
  %27 = getelementptr inbounds nuw i8, ptr %5, i64 2
  %28 = getelementptr inbounds nuw i8, ptr %5, i64 3
  store i8 0, ptr %5, align 1, !tbaa !41
  store i8 0, ptr %26, align 1, !tbaa !41
  store i8 0, ptr %27, align 1, !tbaa !41
  store i8 1, ptr %28, align 1, !tbaa !41
  %29 = tail call i32 @EVP_MD_CTX_copy_ex(ptr noundef nonnull %20, ptr noundef nonnull %21) #7
  %.not6472 = icmp eq i32 %29, 0
  br i1 %.not6472, label %.loopexit, label %.lr.ph

.lr.ph:                                           ; preds = %.preheader, %42
  %.075 = phi ptr [ %43, %42 ], [ %6, %.preheader ]
  %.05274 = phi i64 [ %37, %42 ], [ %7, %.preheader ]
  %.05473 = phi i64 [ %44, %42 ], [ 1, %.preheader ]
  %30 = tail call i32 @EVP_DigestUpdate(ptr noundef nonnull %20, ptr noundef %1, i64 noundef %2) #7
  %.not65 = icmp eq i32 %30, 0
  br i1 %.not65, label %.loopexit, label %31

31:                                               ; preds = %.lr.ph
  %32 = tail call i32 @EVP_DigestUpdate(ptr noundef nonnull %20, ptr noundef %3, i64 noundef %4) #7
  %.not66 = icmp eq i32 %32, 0
  br i1 %.not66, label %.loopexit, label %33

33:                                               ; preds = %31
  %.not67 = icmp ult i64 %.05274, %19
  br i1 %.not67, label %39, label %34

34:                                               ; preds = %33
  %35 = tail call i32 @EVP_DigestFinal_ex(ptr noundef nonnull %20, ptr noundef %.075, ptr noundef null) #7
  %.not69 = icmp eq i32 %35, 0
  br i1 %.not69, label %.loopexit, label %36

36:                                               ; preds = %34
  %37 = sub i64 %.05274, %19
  %38 = icmp eq i64 %37, 0
  br i1 %38, label %.loopexit, label %42

39:                                               ; preds = %33
  %40 = call i32 @EVP_DigestFinal_ex(ptr noundef nonnull %20, ptr noundef nonnull %9, ptr noundef null) #7
  %.not68 = icmp eq i32 %40, 0
  br i1 %.not68, label %.loopexit, label %41

41:                                               ; preds = %39
  call void @llvm.memcpy.p0.p0.i64(ptr align 1 %.075, ptr nonnull align 16 %9, i64 %.05274, i1 false)
  br label %.loopexit

42:                                               ; preds = %36
  %43 = getelementptr inbounds nuw i8, ptr %.075, i64 %19
  %44 = add i64 %.05473, 1
  %45 = lshr i64 %44, 24
  %46 = trunc i64 %45 to i8
  store i8 %46, ptr %5, align 1, !tbaa !41
  %47 = lshr i64 %44, 16
  %48 = trunc i64 %47 to i8
  store i8 %48, ptr %26, align 1, !tbaa !41
  %49 = lshr i64 %44, 8
  %50 = trunc i64 %49 to i8
  store i8 %50, ptr %27, align 1, !tbaa !41
  %51 = trunc i64 %44 to i8
  store i8 %51, ptr %28, align 1, !tbaa !41
  %52 = tail call i32 @EVP_MD_CTX_copy_ex(ptr noundef nonnull %20, ptr noundef nonnull %21) #7
  %.not64 = icmp eq i32 %52, 0
  br i1 %.not64, label %.loopexit, label %.lr.ph

.loopexit:                                        ; preds = %31, %.lr.ph, %42, %34, %36, %.preheader, %41, %39, %24, %18
  %.055 = phi i32 [ 0, %18 ], [ 0, %39 ], [ 0, %24 ], [ 1, %41 ], [ 0, %.preheader ], [ 0, %31 ], [ 0, %.lr.ph ], [ 0, %42 ], [ 0, %34 ], [ 1, %36 ]
  call void @EVP_MD_CTX_free(ptr noundef %20) #7
  call void @EVP_MD_CTX_free(ptr noundef %21) #7
  call void @OPENSSL_cleanse(ptr noundef nonnull %9, i64 noundef 64) #7
  br label %53

53:                                               ; preds = %15, %.loopexit, %14
  %.053 = phi i32 [ 0, %14 ], [ %.055, %.loopexit ], [ 0, %15 ]
  call void @llvm.lifetime.end.p0(i64 64, ptr nonnull %9) #7
  ret i32 %.053
}